target datalayout = "e-m:e-p270:32:32-p271:32:32-p272:64:64-i64:64-i128:128-f80:128-n8:16:32:64-S128"
target triple = "x86_64-pc-linux-gnu"

%struct.StringInfoData = type { ptr, i32, i32, i32 }
%struct.FormData_pg_type = type { i32, %struct.nameData, i32, i32, i16, i8, i8, i8, i8, i8, i8, i32, i32, i32, i32, i32, i32, i32, i32, i32, i32, i32, i8, i8, i8, i32, i32, i32, i32 }
%struct.nameData = type { [64 x i8] }
%struct.Node = type { i32 }
%struct.HeapTupleData = type { i32, %struct.ItemPointerData, i32, ptr }
%struct.ItemPointerData = type { %struct.BlockIdData, i16 }
%struct.BlockIdData = type { i16, i16 }
%struct.HeapTupleHeaderData = type { %union.anon, %struct.ItemPointerData, i16, i16, i8, [0 x i8] }
%union.anon = type { %struct.HeapTupleFields }
%struct.HeapTupleFields = type { i32, i32, %union.anon.0 }
%union.anon.0 = type { i32 }

@.str.1 = private unnamed_addr constant [13 x i8] c"parse_type.c\00", align 1
@.str.6 = private unnamed_addr constant [25 x i8] c"type \22%s\22 does not exist\00", align 1
@.str.7 = private unnamed_addr constant [26 x i8] c"type \22%s\22 is only a shell\00", align 1
@__func__.parseTypeString = private unnamed_addr constant [16 x i8] c"parseTypeString\00", align 1

; Function Attrs: inlinehint nounwind uwtable
define internal ptr @GETSTRUCT(ptr noundef %0) #3 {
  %2 = alloca ptr, align 8
  store ptr %0, ptr %2, align 8
  %3 = load ptr, ptr %2, align 8
  %4 = getelementptr inbounds nuw %struct.HeapTupleData, ptr %3, i32 0, i32 3
  %5 = load ptr, ptr %4, align 8
  %6 = load ptr, ptr %2, align 8
  %7 = getelementptr inbounds nuw %struct.HeapTupleData, ptr %6, i32 0, i32 3
  %8 = load ptr, ptr %7, align 8
  %9 = getelementptr inbounds nuw %struct.HeapTupleHeaderData, ptr %8, i32 0, i32 4
  %10 = load i8, ptr %9, align 2
  %11 = zext i8 %10 to i32
  %12 = sext i32 %11 to i64
  %13 = getelementptr inbounds i8, ptr %5, i64 %12
  ret ptr %13
}

; Function Attrs: nounwind uwtable
define dso_local ptr @TypeNameToString(ptr noundef %0) #0 {
  %2 = alloca ptr, align 8
  %3 = alloca %struct.StringInfoData, align 8
  store ptr %0, ptr %2, align 8
  call void @llvm.lifetime.start.p0(i64 24, ptr %3) #7
  call void @initStringInfo(ptr noundef %3)
  %4 = load ptr, ptr %2, align 8
  call void @appendTypeNameToBuffer(ptr noundef %4, ptr noundef %3)
  %5 = getelementptr inbounds nuw %struct.StringInfoData, ptr %3, i32 0, i32 0
  %6 = load ptr, ptr %5, align 8
  call void @llvm.lifetime.end.p0(i64 24, ptr %3) #7
  ret ptr %6
}

; Function Attrs: nounwind uwtable
define dso_local ptr @LookupTypeName(ptr noundef %0, ptr noundef %1, ptr noundef %2, i1 noundef zeroext %3) #0 {
  %5 = alloca ptr, align 8
  %6 = alloca ptr, align 8
  %7 = alloca ptr, align 8
  %8 = alloca i8, align 1
  store ptr %0, ptr %5, align 8
  store ptr %1, ptr %6, align 8
  store ptr %2, ptr %7, align 8
  %9 = zext i1 %3 to i8
  store i8 %9, ptr %8, align 1
  %10 = load ptr, ptr %5, align 8
  %11 = load ptr, ptr %6, align 8
  %12 = load ptr, ptr %7, align 8
  %13 = load i8, ptr %8, align 1, !range !4, !noundef !5
  %14 = trunc i8 %13 to i1
  %15 = call ptr @LookupTypeNameExtended(ptr noundef %10, ptr noundef %11, ptr noundef %12, i1 noundef zeroext true, i1 noundef zeroext %14)
  ret ptr %15
}

; Function Attrs: nounwind uwtable
define dso_local zeroext i1 @parseTypeString(ptr noundef %0, ptr noundef %1, ptr noundef %2, ptr noundef %3) #0 {
  %5 = alloca i1, align 1
  %6 = alloca ptr, align 8
  %7 = alloca ptr, align 8
  %8 = alloca ptr, align 8
  %9 = alloca ptr, align 8
  %10 = alloca ptr, align 8
  %11 = alloca ptr, align 8
  %12 = alloca i32, align 4
  %13 = alloca ptr, align 8
  %14 = alloca ptr, align 8
  %15 = alloca ptr, align 8
  store ptr %0, ptr %6, align 8
  store ptr %1, ptr %7, align 8
  store ptr %2, ptr %8, align 8
  store ptr %3, ptr %9, align 8
  call void @llvm.lifetime.start.p0(i64 8, ptr %10) #7
  call void @llvm.lifetime.start.p0(i64 8, ptr %11) #7
  %16 = load ptr, ptr %6, align 8
  %17 = load ptr, ptr %9, align 8
  %18 = call ptr @typeStringToTypeName(ptr noundef %16, ptr noundef %17)
  store ptr %18, ptr %10, align 8
  %19 = load ptr, ptr %10, align 8
  %20 = icmp eq ptr %19, null
  br i1 %20, label %21, label %22

21:                                               ; preds = %4
  store i1 false, ptr %5, align 1
  store i32 1, ptr %12, align 4
  br label %89

22:                                               ; preds = %4
  %23 = load ptr, ptr %10, align 8
  %24 = load ptr, ptr %8, align 8
  %25 = load ptr, ptr %9, align 8
  %26 = icmp ne ptr %25, null
  br i1 %26, label %27, label %32

27:                                               ; preds = %22
  %28 = load ptr, ptr %9, align 8
  %29 = getelementptr inbounds nuw %struct.Node, ptr %28, i32 0, i32 0
  %30 = load i32, ptr %29, align 4
  %31 = icmp eq i32 %30, 446
  br label %32

32:                                               ; preds = %27, %22
  %33 = phi i1 [ false, %22 ], [ %31, %27 ]
  %34 = call ptr @LookupTypeName(ptr noundef null, ptr noundef %23, ptr noundef %24, i1 noundef zeroext %33)
  store ptr %34, ptr %11, align 8
  %35 = load ptr, ptr %11, align 8
  %36 = icmp eq ptr %35, null
  br i1 %36, label %37, label %54

37:                                               ; preds = %32
  br label %38

38:                                               ; preds = %37
  br label %39

39:                                               ; preds = %38
  call void @llvm.lifetime.start.p0(i64 8, ptr %13) #7
  %40 = load ptr, ptr %9, align 8
  store ptr %40, ptr %13, align 8
  %41 = load ptr, ptr %13, align 8
  %42 = call zeroext i1 @errsave_start(ptr noundef %41, ptr noundef null)
  br i1 %42, label %43, label %49

43:                                               ; preds = %39
  %44 = call i32 @errcode(i32 noundef 67137668)
  %45 = load ptr, ptr %10, align 8
  %46 = call ptr @TypeNameToString(ptr noundef %45)
  %47 = call i32 (ptr, ...) @errmsg(ptr noundef @.str.6, ptr noundef %46)
  %48 = load ptr, ptr %13, align 8
  call void @errsave_finish(ptr noundef %48, ptr noundef @.str.1, i32 noundef 802, ptr noundef @__func__.parseTypeString)
  br label %49

49:                                               ; preds = %43, %39
  call void @llvm.lifetime.end.p0(i64 8, ptr %13) #7
  br label %50

50:                                               ; preds = %49
  br label %51

51:                                               ; preds = %50
  store i1 false, ptr %5, align 1
  store i32 1, ptr %12, align 4
  br label %89

52:                                               ; No predecessors!
  br label %53

53:                                               ; preds = %52
  br label %88

54:                                               ; preds = %32
  call void @llvm.lifetime.start.p0(i64 8, ptr %14) #7
  %55 = load ptr, ptr %11, align 8
  %56 = call ptr @GETSTRUCT(ptr noundef %55)
  store ptr %56, ptr %14, align 8
  %57 = load ptr, ptr %14, align 8
  %58 = getelementptr inbounds nuw %struct.FormData_pg_type, ptr %57, i32 0, i32 9
  %59 = load i8, ptr %58, align 2, !range !4, !noundef !5
  %60 = trunc i8 %59 to i1
  br i1 %60, label %79, label %61

61:                                               ; preds = %54
  %62 = load ptr, ptr %11, align 8
  call void @ReleaseSysCache(ptr noundef %62)
  br label %63

63:                                               ; preds = %61
  br label %64

64:                                               ; preds = %63
  call void @llvm.lifetime.start.p0(i64 8, ptr %15) #7
  %65 = load ptr, ptr %9, align 8
  store ptr %65, ptr %15, align 8
  %66 = load ptr, ptr %15, align 8
  %67 = call zeroext i1 @errsave_start(ptr noundef %66, ptr noundef null)
  br i1 %67, label %68, label %74

68:                                               ; preds = %64
  %69 = call i32 @errcode(i32 noundef 67137668)
  %70 = load ptr, ptr %10, align 8
  %71 = call ptr @TypeNameToString(ptr noundef %70)
  %72 = call i32 (ptr, ...) @errmsg(ptr noundef @.str.7, ptr noundef %71)
  %73 = load ptr, ptr %15, align 8
  call void @errsave_finish(ptr noundef %73, ptr noundef @.str.1, i32 noundef 814, ptr noundef @__func__.parseTypeString)
  br label %74

74:                                               ; preds = %68, %64
  call void @llvm.lifetime.end.p0(i64 8, ptr %15) #7
  br label %75

75:                                               ; preds = %74
  br label %76

76:                                               ; preds = %75
  store i1 false, ptr %5, align 1
  store i32 1, ptr %12, align 4
  br label %85

77:                                               ; No predecessors!
  br label %78

78:                                               ; preds = %77
  br label %79

79:                                               ; preds = %78, %54
  %80 = load ptr, ptr %14, align 8
  %81 = getelementptr inbounds nuw %struct.FormData_pg_type, ptr %80, i32 0, i32 0
  %82 = load i32, ptr %81, align 4
  %83 = load ptr, ptr %7, align 8
  store i32 %82, ptr %83, align 4
  %84 = load ptr, ptr %11, align 8
  call void @ReleaseSysCache(ptr noundef %84)
  store i32 0, ptr %12, align 4
  br label %85

85:                                               ; preds = %79, %76
  call void @llvm.lifetime.end.p0(i64 8, ptr %14) #7
  %86 = load i32, ptr %12, align 4
  switch i32 %86, label %89 [
    i32 0, label %87
  ]

87:                                               ; preds = %85
  br label %88

88:                                               ; preds = %87, %53
  store i1 true, ptr %5, align 1
  store i32 1, ptr %12, align 4
  br label %89

89:                                               ; preds = %88, %85, %51, %21
  call void @llvm.lifetime.end.p0(i64 8, ptr %11) #7
  call void @llvm.lifetime.end.p0(i64 8, ptr %10) #7
  %90 = load i1, ptr %5, align 1
  ret i1 %90
}