; Function Attrs: nounwind uwtable
define dso_local noundef zeroext i1 @parseTypeString(ptr noundef %0, ptr noundef writeonly captures(none) %1, ptr noundef captures(address_is_null) %2, ptr noundef %3) local_unnamed_addr #0 {
  %5 = alloca %struct.StringInfoData, align 8
  %6 = alloca %struct.StringInfoData, align 8
  %7 = tail call ptr @typeStringToTypeName(ptr noundef %0, ptr noundef %3)
  %8 = icmp eq ptr %7, null
  br i1 %8, label %40, label %9

9:                                                ; preds = %4
  %.not = icmp eq ptr %3, null
  br i1 %.not, label %13, label %10

10:                                               ; preds = %9
  %11 = load i32, ptr %3, align 4
  %12 = icmp eq i32 %11, 446
  br label %13

13:                                               ; preds = %10, %9
  %14 = phi i1 [ false, %9 ], [ %12, %10 ]
  %15 = tail call ptr @LookupTypeNameExtended(ptr noundef null, ptr noundef nonnull readonly %7, ptr noundef %2, i1 noundef zeroext true, i1 noundef zeroext %14)
  %16 = icmp eq ptr %15, null
  br i1 %16, label %17, label %23

17:                                               ; preds = %13
  %18 = tail call zeroext i1 @errsave_start(ptr noundef %3, ptr noundef null) #7
  br i1 %18, label %19, label %40

19:                                               ; preds = %17
  %20 = tail call i32 @errcode(i32 noundef 67137668) #7
  call void @llvm.lifetime.start.p0(i64 24, ptr nonnull %6) #7
  call void @initStringInfo(ptr noundef nonnull %6) #7
  call fastcc void @appendTypeNameToBuffer(ptr noundef nonnull readonly %7, ptr noundef %6)
  %21 = load ptr, ptr %6, align 8
  call void @llvm.lifetime.end.p0(i64 24, ptr nonnull %6) #7
  %22 = call i32 (ptr, ...) @errmsg(ptr noundef nonnull @.str.6, ptr noundef %21) #7
  call void @errsave_finish(ptr noundef %3, ptr noundef nonnull @.str.1, i32 noundef 802, ptr noundef nonnull @__func__.parseTypeString) #7
  br label %40

23:                                               ; preds = %13
  %24 = getelementptr i8, ptr %15, i64 16
  %.val = load ptr, ptr %24, align 8
  %25 = getelementptr inbounds nuw i8, ptr %.val, i64 22
  %26 = load i8, ptr %25, align 2
  %27 = zext i8 %26 to i64
  %28 = getelementptr inbounds nuw i8, ptr %.val, i64 %27
  %29 = getelementptr inbounds nuw i8, ptr %28, i64 82
  %30 = load i8, ptr %29, align 2, !range !4, !noundef !5
  %31 = trunc nuw i8 %30 to i1
  br i1 %31, label %38, label %32

32:                                               ; preds = %23
  tail call void @ReleaseSysCache(ptr noundef nonnull %15) #7
  %33 = tail call zeroext i1 @errsave_start(ptr noundef %3, ptr noundef null) #7
  br i1 %33, label %34, label %40

34:                                               ; preds = %32
  %35 = tail call i32 @errcode(i32 noundef 67137668) #7
  call void @llvm.lifetime.start.p0(i64 24, ptr nonnull %5) #7
  call void @initStringInfo(ptr noundef nonnull %5) #7
  call fastcc void @appendTypeNameToBuffer(ptr noundef nonnull readonly %7, ptr noundef %5)
  %36 = load ptr, ptr %5, align 8
  call void @llvm.lifetime.end.p0(i64 24, ptr nonnull %5) #7
  %37 = call i32 (ptr, ...) @errmsg(ptr noundef nonnull @.str.7, ptr noundef %36) #7
  call void @errsave_finish(ptr noundef %3, ptr noundef nonnull @.str.1, i32 noundef 814, ptr noundef nonnull @__func__.parseTypeString) #7
  br label %40

38:                                               ; preds = %23
  %39 = load i32, ptr %28, align 4
  store i32 %39, ptr %1, align 4
  tail call void @ReleaseSysCache(ptr noundef nonnull %15) #7
  br label %40

40:                                               ; preds = %38, %34, %32, %17, %19, %4
  %.0 = phi i1 [ false, %4 ], [ false, %19 ], [ false, %17 ], [ false, %32 ], [ false, %34 ], [ true, %38 ]
  ret i1 %.0
}